ARM GAS  C:\Users\Omistaja\AppData\Local\Temp\ccnLuTRd.s 			page 1


   1              		.syntax unified
   2              		.cpu cortex-m3
   3              		.fpu softvfp
   4              		.eabi_attribute 20, 1
   5              		.eabi_attribute 21, 1
   6              		.eabi_attribute 23, 3
   7              		.eabi_attribute 24, 1
   8              		.eabi_attribute 25, 1
   9              		.eabi_attribute 26, 1
  10              		.eabi_attribute 30, 1
  11              		.eabi_attribute 34, 1
  12              		.eabi_attribute 18, 4
  13              		.thumb
  14              		.file	"main.c"
  15              		.text
  16              	.Ltext0:
  17              		.cfi_sections	.debug_frame
  18              		.global	__aeabi_fmul
  19              		.section	.text.checkBattery,"ax",%progbits
  20              		.align	2
  21              		.global	checkBattery
  22              		.thumb
  23              		.thumb_func
  24              		.type	checkBattery, %function
  25              	checkBattery:
  26              	.LFB63:
  27              		.file 1 "main.c"
   1:main.c        **** /**
   2:main.c        **** * @mainpage ZumoBot Project
   3:main.c        **** * @brief    You can make your own ZumoBot with various sensors.
   4:main.c        **** * @details  <br><br>
   5:main.c        ****     <p>
   6:main.c        ****     <B>General</B><br>
   7:main.c        ****     You will use Pololu Zumo Shields for your robot project with CY8CKIT-059(PSoC 5LP) from Cypress
   8:main.c        ****     library has basic methods of various sensors and communications so that you can make what you w
   9:main.c        ****     <br><br>
  10:main.c        ****     </p>
  11:main.c        **** 
  12:main.c        ****     <p>
  13:main.c        ****     <B>Sensors</B><br>
  14:main.c        ****     &nbsp;Included: <br>
  15:main.c        ****         &nbsp;&nbsp;&nbsp;&nbsp;LSM303D: Accelerometer & Magnetometer<br>
  16:main.c        ****         &nbsp;&nbsp;&nbsp;&nbsp;L3GD20H: Gyroscope<br>
  17:main.c        ****         &nbsp;&nbsp;&nbsp;&nbsp;Reflectance sensor<br>
  18:main.c        ****         &nbsp;&nbsp;&nbsp;&nbsp;Motors
  19:main.c        ****     &nbsp;Wii nunchuck<br>
  20:main.c        ****     &nbsp;TSOP-2236: IR Receiver<br>
  21:main.c        ****     &nbsp;HC-SR04: Ultrasonic sensor<br>
  22:main.c        ****     &nbsp;APDS-9301: Ambient light sensor<br>
  23:main.c        ****     &nbsp;IR LED <br><br><br>
  24:main.c        ****     </p>
  25:main.c        **** 
  26:main.c        ****     <p>
  27:main.c        ****     <B>Communication</B><br>
  28:main.c        ****     I2C, UART, Serial<br>
  29:main.c        ****     </p>
  30:main.c        **** */
ARM GAS  C:\Users\Omistaja\AppData\Local\Temp\ccnLuTRd.s 			page 2


  31:main.c        **** 
  32:main.c        **** #include <project.h>
  33:main.c        **** #include <stdio.h>
  34:main.c        **** #include "Motor.h"
  35:main.c        **** #include "Ultra.h"
  36:main.c        **** #include "Nunchuk.h"
  37:main.c        **** #include "Reflectance.h"
  38:main.c        **** #include "I2C_made.h"
  39:main.c        **** #include "Gyro.h"
  40:main.c        **** #include "Accel_magnet.h"
  41:main.c        **** #include "IR.h"
  42:main.c        **** #include "Ambient.h"
  43:main.c        **** #include "Beep.h"
  44:main.c        **** 
  45:main.c        **** #define DELAY_MOTOR 1
  46:main.c        **** #define LOW_SPEED 200
  47:main.c        **** #define LOW_SPEED_MORE 5
  48:main.c        **** #define HIGH_SPEED 250
  49:main.c        **** #define HIGH_SPEED_MORE 255
  50:main.c        **** #define MAX_SPEED 255
  51:main.c        **** 
  52:main.c        **** // Opted out of fast calibration
  53:main.c        **** //extern struct sensors_ threshold;
  54:main.c        **** /* int whiteL2;
  55:main.c        **** int whiteL1;
  56:main.c        **** int whiteR1;
  57:main.c        **** int whiteR2;
  58:main.c        **** int blackL2;
  59:main.c        **** int blackL1;
  60:main.c        **** int blackR1;
  61:main.c        **** int blackR2;
  62:main.c        **** 
  63:main.c        **** // Calibrate sensors on white part and black part then calculate the average
  64:main.c        **** int calculateAvg(int x, int y){
  65:main.c        ****     int z = x + (y-x) / 2;
  66:main.c        ****     return z;
  67:main.c        **** }
  68:main.c        **** void calibrate() {
  69:main.c        ****     reflectance_set_threshold(
  70:main.c        ****             calculateAvg(whiteL2, blackL2),
  71:main.c        ****             calculateAvg(whiteL1, blackL1),
  72:main.c        ****             calculateAvg(whiteR1, blackR1),
  73:main.c        ****             calculateAvg(whiteR2, blackR2)
  74:main.c        ****     );
  75:main.c        **** }
  76:main.c        **** */
  77:main.c        **** 
  78:main.c        **** float checkBattery(){
  28              		.loc 1 78 0
  29              		.cfi_startproc
  30              		@ args = 0, pretend = 0, frame = 0
  31              		@ frame_needed = 0, uses_anonymous_args = 0
  32 0000 08B5     		push	{r3, lr}
  33              		.cfi_def_cfa_offset 8
  34              		.cfi_offset 3, -8
  35              		.cfi_offset 14, -4
  36              	.LVL0:
ARM GAS  C:\Users\Omistaja\AppData\Local\Temp\ccnLuTRd.s 			page 3


  79:main.c        ****     int16 adcresult = 0;
  80:main.c        ****     float volts = 0.0;
  81:main.c        ****     float battery = 0.0;
  82:main.c        ****     ADC_Battery_StartConvert();
  37              		.loc 1 82 0
  38 0002 FFF7FEFF 		bl	ADC_Battery_StartConvert
  39              	.LVL1:
  83:main.c        ****     if(ADC_Battery_IsEndConversion(ADC_Battery_WAIT_FOR_RESULT)) {   // wait for get ADC converted 
  40              		.loc 1 83 0
  41 0006 0020     		movs	r0, #0
  42 0008 FFF7FEFF 		bl	ADC_Battery_IsEndConversion
  43              	.LVL2:
  44 000c 40B1     		cbz	r0, .L3
  84:main.c        ****     adcresult = ADC_Battery_GetResult16();
  45              		.loc 1 84 0
  46 000e FFF7FEFF 		bl	ADC_Battery_GetResult16
  47              	.LVL3:
  85:main.c        ****     volts = ADC_Battery_CountsTo_Volts(adcresult);                  // convert value to Volts
  48              		.loc 1 85 0
  49 0012 FFF7FEFF 		bl	ADC_Battery_CountsTo_Volts
  50              	.LVL4:
  86:main.c        ****     battery = volts*1.5;
  51              		.loc 1 86 0
  52 0016 4FF07F51 		mov	r1, #1069547520
  53 001a FFF7FEFF 		bl	__aeabi_fmul
  54              	.LVL5:
  55 001e 08BD     		pop	{r3, pc}
  56              	.LVL6:
  57              	.L3:
  81:main.c        ****     ADC_Battery_StartConvert();
  58              		.loc 1 81 0
  59 0020 0020     		movs	r0, #0
  60              	.LVL7:
  87:main.c        ****     }
  88:main.c        ****     return battery;
  89:main.c        **** }
  61              		.loc 1 89 0
  62 0022 08BD     		pop	{r3, pc}
  63              		.cfi_endproc
  64              	.LFE63:
  65              		.size	checkBattery, .-checkBattery
  66              		.global	__aeabi_fcmpge
  67              		.global	__aeabi_fcmplt
  68              		.section	.text.main,"ax",%progbits
  69              		.align	2
  70              		.global	main
  71              		.thumb
  72              		.thumb_func
  73              		.type	main, %function
  74              	main:
  75              	.LFB64:
  90:main.c        **** 
  91:main.c        **** int rread(void);
  92:main.c        **** /**
  93:main.c        ****  * @file    main.c
  94:main.c        ****  * @brief
  95:main.c        ****  * @details  ** You should enable global interrupt for operating properly. **<br>&nbsp;&nbsp;&nbsp;
ARM GAS  C:\Users\Omistaja\AppData\Local\Temp\ccnLuTRd.s 			page 4


  96:main.c        **** */
  97:main.c        **** 
  98:main.c        **** int main()
  99:main.c        **** {
  76              		.loc 1 99 0
  77              		.cfi_startproc
  78              		@ args = 0, pretend = 0, frame = 16
  79              		@ frame_needed = 0, uses_anonymous_args = 0
  80 0000 2DE9F043 		push	{r4, r5, r6, r7, r8, r9, lr}
  81              		.cfi_def_cfa_offset 28
  82              		.cfi_offset 4, -28
  83              		.cfi_offset 5, -24
  84              		.cfi_offset 6, -20
  85              		.cfi_offset 7, -16
  86              		.cfi_offset 8, -12
  87              		.cfi_offset 9, -8
  88              		.cfi_offset 14, -4
  89 0004 85B0     		sub	sp, sp, #20
  90              		.cfi_def_cfa_offset 48
 100:main.c        ****     CyGlobalIntEnable;
  91              		.loc 1 100 0
  92              	@ 100 "main.c" 1
  93 0006 62B6     		CPSIE   i
  94              	@ 0 "" 2
 101:main.c        ****     UART_1_Start();
  95              		.loc 1 101 0
  96              		.thumb
  97 0008 FFF7FEFF 		bl	UART_1_Start
  98              	.LVL8:
 102:main.c        ****     ADC_Battery_Start();
  99              		.loc 1 102 0
 100 000c FFF7FEFF 		bl	ADC_Battery_Start
 101              	.LVL9:
 103:main.c        ****     float battery = 0.0;
 104:main.c        ****     battery = checkBattery();
 102              		.loc 1 104 0
 103 0010 FFF7FEFF 		bl	checkBattery
 104              	.LVL10:
 105 0014 0546     		mov	r5, r0
 106              	.LVL11:
 105:main.c        ****     struct sensors_ ref;
 106:main.c        ****     struct sensors_ dig;
 107:main.c        ****     sensor_isr_StartEx(sensor_isr_handler);
 107              		.loc 1 107 0
 108 0016 8548     		ldr	r0, .L28
 109              	.LVL12:
 110 0018 FFF7FEFF 		bl	sensor_isr_StartEx
 111              	.LVL13:
 108:main.c        ****     reflectance_start();
 112              		.loc 1 108 0
 113 001c FFF7FEFF 		bl	reflectance_start
 114              	.LVL14:
 109:main.c        ****     IR_led_Write(1);
 115              		.loc 1 109 0
 116 0020 0120     		movs	r0, #1
 117 0022 FFF7FEFF 		bl	IR_led_Write
 118              	.LVL15:
ARM GAS  C:\Users\Omistaja\AppData\Local\Temp\ccnLuTRd.s 			page 5


 110:main.c        ****     BatteryLed_Write(0); 
 119              		.loc 1 110 0
 120 0026 0020     		movs	r0, #0
 121 0028 FFF7FEFF 		bl	BatteryLed_Write
 122              	.LVL16:
 111:main.c        ****     
 112:main.c        ****     // Unused varibles : opted out of fast calibration
 113:main.c        ****     //int button = SW1_Read(); // read SW1 on pSoC board
 114:main.c        ****     //int button; // SW1
 115:main.c        ****     //int func = 1; // current func of SW1
 116:main.c        ****     //int ready = 0; // calibrated or not
 117:main.c        ****     //int release = 1;
 118:main.c        ****     int check = 0;
 119:main.c        ****     int wasOnLine = 0;
 120:main.c        ****     int flag = 0;
 121:main.c        ****     int stopValue = 0;
 122:main.c        ****     int remote = 1; // get_IR()
 123:main.c        ****     int start = 1;
 124:main.c        ****     
 125:main.c        ****     
 126:main.c        ****     CyDelay(1500);
 123              		.loc 1 126 0
 124 002c 40F2DC50 		movw	r0, #1500
 125 0030 FFF7FEFF 		bl	CyDelay
 126              	.LVL17:
 127:main.c        ****     motor_start();
 127              		.loc 1 127 0
 128 0034 FFF7FEFF 		bl	motor_start
 129              	.LVL18:
 123:main.c        ****     
 130              		.loc 1 123 0
 131 0038 4FF00108 		mov	r8, #1
 121:main.c        ****     int remote = 1; // get_IR()
 132              		.loc 1 121 0
 133 003c 0026     		movs	r6, #0
 120:main.c        ****     int stopValue = 0;
 134              		.loc 1 120 0
 135 003e B146     		mov	r9, r6
 119:main.c        ****     int flag = 0;
 136              		.loc 1 119 0
 137 0040 3746     		mov	r7, r6
 118:main.c        ****     int wasOnLine = 0;
 138              		.loc 1 118 0
 139 0042 3446     		mov	r4, r6
 128:main.c        ****    
 129:main.c        ****     while(battery >= 4) {
 140              		.loc 1 129 0
 141 0044 D1E0     		b	.L6
 142              	.LVL19:
 143              	.L22:
 130:main.c        **** 
 131:main.c        ****         reflectance_read(&ref);
 144              		.loc 1 131 0
 145 0046 02A8     		add	r0, sp, #8
 146 0048 FFF7FEFF 		bl	reflectance_read
 147              	.LVL20:
 132:main.c        ****         reflectance_digital(&dig);
ARM GAS  C:\Users\Omistaja\AppData\Local\Temp\ccnLuTRd.s 			page 6


 148              		.loc 1 132 0
 149 004c 6846     		mov	r0, sp
 150 004e FFF7FEFF 		bl	reflectance_digital
 151              	.LVL21:
 133:main.c        **** 
 134:main.c        ****         // Press SW1 button for calibration -> Sets new values of threshold
 135:main.c        ****         //button = SW1_Read();
 136:main.c        ****         //CALIBRATION : not used
 137:main.c        ****         /* while (button == 0 && release == 1){
 138:main.c        ****                 release = 0;
 139:main.c        ****             if (func == 2){
 140:main.c        ****             blackL2 = ref.l3;
 141:main.c        ****             blackL1 = ref.l1;
 142:main.c        ****             blackR1 = ref.r1;
 143:main.c        ****             blackR2 = ref.r3;
 144:main.c        ****                 calibrate();
 145:main.c        ****                 func = 1;
 146:main.c        ****                 button = 1;
 147:main.c        ****                 ready = 1;
 148:main.c        ****             }
 149:main.c        ****             if (func == 1){
 150:main.c        ****             whiteL2 = ref.l3;
 151:main.c        ****             whiteL1 = ref.l1;
 152:main.c        ****             whiteR1 = ref.r1;
 153:main.c        ****             whiteR2 = ref.r3;
 154:main.c        ****                 func = 2;
 155:main.c        ****                 button = 1;
 156:main.c        **** 
 157:main.c        ****             }
 158:main.c        **** 
 159:main.c        ****              CyDelay(500);
 160:main.c        ****              release = 1;
 161:main.c        ****         }
 162:main.c        ****         */
 163:main.c        ****         if(dig.l3 == 0 && dig.l1 == 0 && dig.r1 == 0 && dig.r3 == 0)
 152              		.loc 1 163 0
 153 0052 BDF80030 		ldrh	r3, [sp]
 154 0056 3BBB     		cbnz	r3, .L7
 155              		.loc 1 163 0 is_stmt 0 discriminator 1
 156 0058 BDF80220 		ldrh	r2, [sp, #2]
 157 005c 22BB     		cbnz	r2, .L7
 158              		.loc 1 163 0 discriminator 2
 159 005e BDF80420 		ldrh	r2, [sp, #4]
 160 0062 0ABB     		cbnz	r2, .L7
 161              		.loc 1 163 0 discriminator 3
 162 0064 BDF80620 		ldrh	r2, [sp, #6]
 163 0068 F2B9     		cbnz	r2, .L7
 164:main.c        ****                 {
 165:main.c        ****                     if (start == 1){
 164              		.loc 1 165 0 is_stmt 1
 165 006a B8F1000F 		cmp	r8, #0
 166 006e 0ED0     		beq	.L8
 166:main.c        ****                         motor_stop();
 167              		.loc 1 166 0
 168 0070 FFF7FEFF 		bl	motor_stop
 169              	.LVL22:
 167:main.c        ****                         start = 0;
ARM GAS  C:\Users\Omistaja\AppData\Local\Temp\ccnLuTRd.s 			page 7


 168:main.c        ****                         remote = get_IR();
 170              		.loc 1 168 0
 171 0074 FFF7FEFF 		bl	get_IR
 172              	.LVL23:
 169:main.c        ****                         if(remote != 1){
 173              		.loc 1 169 0
 174 0078 0128     		cmp	r0, #1
 175 007a 05D0     		beq	.L25
 170:main.c        ****                             motor_start();
 176              		.loc 1 170 0
 177 007c FFF7FEFF 		bl	motor_start
 178              	.LVL24:
 167:main.c        ****                         start = 0;
 179              		.loc 1 167 0
 180 0080 4FF00008 		mov	r8, #0
 171:main.c        ****                         }
 172:main.c        ****                         wasOnLine = 0;
 181              		.loc 1 172 0
 182 0084 4746     		mov	r7, r8
 183              	.LVL25:
 184 0086 02E0     		b	.L8
 185              	.LVL26:
 186              	.L25:
 167:main.c        ****                         remote = get_IR();
 187              		.loc 1 167 0
 188 0088 4FF00008 		mov	r8, #0
 189              		.loc 1 172 0
 190 008c 4746     		mov	r7, r8
 191              	.LVL27:
 192              	.L8:
 173:main.c        ****                     }
 174:main.c        ****                     if (wasOnLine == 1){
 193              		.loc 1 174 0
 194 008e 002F     		cmp	r7, #0
 195 0090 00F09F80 		beq	.L9
 175:main.c        ****                         if (stopValue == 0 || stopValue == 1 || stopValue == 2){
 196              		.loc 1 175 0
 197 0094 022E     		cmp	r6, #2
 198 0096 00D8     		bhi	.L10
 176:main.c        ****                         stopValue++;
 199              		.loc 1 176 0
 200 0098 0136     		adds	r6, r6, #1
 201              	.LVL28:
 202              	.L10:
 177:main.c        ****                         }
 178:main.c        ****                         if (stopValue >= 2){
 203              		.loc 1 178 0
 204 009a 012E     		cmp	r6, #1
 205 009c 40F39880 		ble	.L26
 179:main.c        ****                         motor_stop();
 206              		.loc 1 179 0
 207 00a0 FFF7FEFF 		bl	motor_stop
 208              	.LVL29:
 180:main.c        ****                         }
 181:main.c        ****                         wasOnLine = 0;
 209              		.loc 1 181 0
 210 00a4 0027     		movs	r7, #0
ARM GAS  C:\Users\Omistaja\AppData\Local\Temp\ccnLuTRd.s 			page 8


 211              	.LVL30:
 212 00a6 94E0     		b	.L9
 213              	.LVL31:
 214              	.L7:
 182:main.c        ****                     }
 183:main.c        ****                 }
 184:main.c        ****                 else if(dig.l3 == 0 && dig.l1 == 1 && dig.r1 == 1 && dig.r3 == 1)
 215              		.loc 1 184 0
 216 00a8 9BB9     		cbnz	r3, .L11
 217              		.loc 1 184 0 is_stmt 0 discriminator 1
 218 00aa BDF80220 		ldrh	r2, [sp, #2]
 219 00ae 012A     		cmp	r2, #1
 220 00b0 0FD1     		bne	.L11
 221              		.loc 1 184 0 discriminator 2
 222 00b2 BDF80420 		ldrh	r2, [sp, #4]
 223 00b6 012A     		cmp	r2, #1
 224 00b8 0BD1     		bne	.L11
 225              		.loc 1 184 0 discriminator 3
 226 00ba BDF80620 		ldrh	r2, [sp, #6]
 227 00be 012A     		cmp	r2, #1
 228 00c0 07D1     		bne	.L11
 229              	.LVL32:
 185:main.c        ****                 {
 186:main.c        ****                     flag = 1;
 187:main.c        ****                     motor_turn(LOW_SPEED_MORE,HIGH_SPEED_MORE,DELAY_MOTOR); // turn left more
 230              		.loc 1 187 0 is_stmt 1
 231 00c2 0520     		movs	r0, #5
 232 00c4 FF21     		movs	r1, #255
 233 00c6 FFF7FEFF 		bl	motor_turn
 234              	.LVL33:
 186:main.c        ****                     motor_turn(LOW_SPEED_MORE,HIGH_SPEED_MORE,DELAY_MOTOR); // turn left more
 235              		.loc 1 186 0
 236 00ca 4FF00109 		mov	r9, #1
 188:main.c        **** //                    motor_turn_left_more(LOW_SPEED_MORE,HIGH_SPEED_MORE,DELAY_MOTOR);
 189:main.c        ****                     wasOnLine = 1;
 237              		.loc 1 189 0
 238 00ce 4F46     		mov	r7, r9
 239 00d0 7FE0     		b	.L9
 240              	.LVL34:
 241              	.L11:
 190:main.c        ****                 }else if (dig.l3 == 1 && dig.l1 == 0 && dig.r1 == 1 && dig.r3 == 1)
 242              		.loc 1 190 0
 243 00d2 012B     		cmp	r3, #1
 244 00d4 12D1     		bne	.L12
 245              		.loc 1 190 0 is_stmt 0 discriminator 1
 246 00d6 BDF80220 		ldrh	r2, [sp, #2]
 247 00da 7AB9     		cbnz	r2, .L12
 248              		.loc 1 190 0 discriminator 2
 249 00dc BDF80420 		ldrh	r2, [sp, #4]
 250 00e0 012A     		cmp	r2, #1
 251 00e2 0BD1     		bne	.L12
 252              		.loc 1 190 0 discriminator 3
 253 00e4 BDF80620 		ldrh	r2, [sp, #6]
 254 00e8 012A     		cmp	r2, #1
 255 00ea 07D1     		bne	.L12
 256              	.LVL35:
 191:main.c        ****                 {
ARM GAS  C:\Users\Omistaja\AppData\Local\Temp\ccnLuTRd.s 			page 9


 192:main.c        ****                     flag = 2;
 193:main.c        ****                     wasOnLine = 1;
 194:main.c        ****                     motor_turn(LOW_SPEED,HIGH_SPEED,DELAY_MOTOR); // turn left
 257              		.loc 1 194 0 is_stmt 1
 258 00ec C820     		movs	r0, #200
 259 00ee FA21     		movs	r1, #250
 260 00f0 FFF7FEFF 		bl	motor_turn
 261              	.LVL36:
 192:main.c        ****                     wasOnLine = 1;
 262              		.loc 1 192 0
 263 00f4 4FF00209 		mov	r9, #2
 193:main.c        ****                     motor_turn(LOW_SPEED,HIGH_SPEED,DELAY_MOTOR); // turn left
 264              		.loc 1 193 0
 265 00f8 0127     		movs	r7, #1
 266              		.loc 1 194 0
 267 00fa 6AE0     		b	.L9
 268              	.LVL37:
 269              	.L12:
 195:main.c        ****                 }else if(dig.l3 == 1 && dig.l1 == 1 && dig.r1 == 1 && dig.r3 == 0)
 270              		.loc 1 195 0
 271 00fc 012B     		cmp	r3, #1
 272 00fe 13D1     		bne	.L13
 273              		.loc 1 195 0 is_stmt 0 discriminator 1
 274 0100 BDF80220 		ldrh	r2, [sp, #2]
 275 0104 012A     		cmp	r2, #1
 276 0106 0FD1     		bne	.L13
 277              		.loc 1 195 0 discriminator 2
 278 0108 BDF80420 		ldrh	r2, [sp, #4]
 279 010c 012A     		cmp	r2, #1
 280 010e 0BD1     		bne	.L13
 281              		.loc 1 195 0 discriminator 3
 282 0110 BDF80620 		ldrh	r2, [sp, #6]
 283 0114 42B9     		cbnz	r2, .L13
 284              	.LVL38:
 196:main.c        ****                 {
 197:main.c        ****                     flag = 3;
 198:main.c        ****                     wasOnLine = 1;
 199:main.c        ****                     motor_turn(HIGH_SPEED_MORE,LOW_SPEED_MORE,DELAY_MOTOR); // turn right more
 285              		.loc 1 199 0 is_stmt 1
 286 0116 FF20     		movs	r0, #255
 287 0118 0521     		movs	r1, #5
 288 011a 0122     		movs	r2, #1
 289 011c FFF7FEFF 		bl	motor_turn
 290              	.LVL39:
 197:main.c        ****                     wasOnLine = 1;
 291              		.loc 1 197 0
 292 0120 4FF00309 		mov	r9, #3
 198:main.c        ****                     motor_turn(HIGH_SPEED_MORE,LOW_SPEED_MORE,DELAY_MOTOR); // turn right more
 293              		.loc 1 198 0
 294 0124 0127     		movs	r7, #1
 295              		.loc 1 199 0
 296 0126 54E0     		b	.L9
 297              	.LVL40:
 298              	.L13:
 200:main.c        **** //                    motor_turn_right_more(HIGH_SPEED_MORE,LOW_SPEED_MORE,DELAY_MOTOR);
 201:main.c        ****                 }else if (dig.l3 == 1 && dig.l1 == 1 && dig.r1 == 0 && dig.r3 == 1)
 299              		.loc 1 201 0
ARM GAS  C:\Users\Omistaja\AppData\Local\Temp\ccnLuTRd.s 			page 10


 300 0128 012B     		cmp	r3, #1
 301 012a 11D1     		bne	.L14
 302              		.loc 1 201 0 is_stmt 0 discriminator 1
 303 012c BDF80220 		ldrh	r2, [sp, #2]
 304 0130 012A     		cmp	r2, #1
 305 0132 0DD1     		bne	.L14
 306              		.loc 1 201 0 discriminator 2
 307 0134 BDF80420 		ldrh	r2, [sp, #4]
 308 0138 52B9     		cbnz	r2, .L14
 309              		.loc 1 201 0 discriminator 3
 310 013a BDF80620 		ldrh	r2, [sp, #6]
 311 013e 012A     		cmp	r2, #1
 312 0140 06D1     		bne	.L14
 313              	.LVL41:
 202:main.c        ****                 {
 203:main.c        ****                     flag = 4;
 204:main.c        ****                     motor_turn(HIGH_SPEED,LOW_SPEED,DELAY_MOTOR); // turn right
 314              		.loc 1 204 0 is_stmt 1
 315 0142 FA20     		movs	r0, #250
 316 0144 C821     		movs	r1, #200
 317 0146 FFF7FEFF 		bl	motor_turn
 318              	.LVL42:
 203:main.c        ****                     motor_turn(HIGH_SPEED,LOW_SPEED,DELAY_MOTOR); // turn right
 319              		.loc 1 203 0
 320 014a 4FF00409 		mov	r9, #4
 321              		.loc 1 204 0
 322 014e 40E0     		b	.L9
 323              	.LVL43:
 324              	.L14:
 205:main.c        ****                 }else if(dig.l3 == 1 && dig.l1 == 0 && dig.r1 == 0 && dig.r3 == 1)
 325              		.loc 1 205 0
 326 0150 012B     		cmp	r3, #1
 327 0152 0FD1     		bne	.L15
 328              		.loc 1 205 0 is_stmt 0 discriminator 1
 329 0154 BDF80220 		ldrh	r2, [sp, #2]
 330 0158 62B9     		cbnz	r2, .L15
 331              		.loc 1 205 0 discriminator 2
 332 015a BDF80420 		ldrh	r2, [sp, #4]
 333 015e 4AB9     		cbnz	r2, .L15
 334              		.loc 1 205 0 discriminator 3
 335 0160 BDF80620 		ldrh	r2, [sp, #6]
 336 0164 012A     		cmp	r2, #1
 337 0166 05D1     		bne	.L15
 338              	.LVL44:
 206:main.c        ****                 {
 207:main.c        ****                     wasOnLine = 1;
 208:main.c        ****                     motor_forward(MAX_SPEED,DELAY_MOTOR); //GO STRAIGHT ON
 339              		.loc 1 208 0 is_stmt 1
 340 0168 FF20     		movs	r0, #255
 341 016a 0121     		movs	r1, #1
 342 016c FFF7FEFF 		bl	motor_forward
 343              	.LVL45:
 207:main.c        ****                     motor_forward(MAX_SPEED,DELAY_MOTOR); //GO STRAIGHT ON
 344              		.loc 1 207 0
 345 0170 0127     		movs	r7, #1
 346              		.loc 1 208 0
 347 0172 2EE0     		b	.L9
ARM GAS  C:\Users\Omistaja\AppData\Local\Temp\ccnLuTRd.s 			page 11


 348              	.LVL46:
 349              	.L15:
 209:main.c        ****                 }
 210:main.c        ****                 else if(dig.l3 == 1 && dig.l1 == 1 && dig.r1 == 1 && dig.r3 == 1)
 350              		.loc 1 210 0
 351 0174 012B     		cmp	r3, #1
 352 0176 2CD1     		bne	.L9
 353              		.loc 1 210 0 is_stmt 0 discriminator 1
 354 0178 BDF80230 		ldrh	r3, [sp, #2]
 355 017c 012B     		cmp	r3, #1
 356 017e 28D1     		bne	.L9
 357              		.loc 1 210 0 discriminator 2
 358 0180 BDF80430 		ldrh	r3, [sp, #4]
 359 0184 012B     		cmp	r3, #1
 360 0186 24D1     		bne	.L9
 361              		.loc 1 210 0 discriminator 3
 362 0188 BDF80630 		ldrh	r3, [sp, #6]
 363 018c 012B     		cmp	r3, #1
 364 018e 20D1     		bne	.L9
 211:main.c        ****                 {
 212:main.c        ****                     switch (flag)
 365              		.loc 1 212 0 is_stmt 1
 366 0190 09F1FF33 		add	r3, r9, #-1
 367 0194 032B     		cmp	r3, #3
 368 0196 1CD8     		bhi	.L9
 369 0198 DFE803F0 		tbb	[pc, r3]
 370              	.L17:
 371 019c 02       		.byte	(.L16-.L17)/2
 372 019d 08       		.byte	(.L18-.L17)/2
 373 019e 0E       		.byte	(.L19-.L17)/2
 374 019f 14       		.byte	(.L20-.L17)/2
 375              		.p2align 1
 376              	.L16:
 213:main.c        ****                     {
 214:main.c        ****                         case 1:
 215:main.c        **** //                            motor_turn_left_more(LOW_SPEED_MORE,HIGH_SPEED_MORE,DELAY_MOTOR);
 216:main.c        ****                             motor_turn(LOW_SPEED_MORE,HIGH_SPEED_MORE,DELAY_MOTOR); // turn left mo
 377              		.loc 1 216 0
 378 01a0 0520     		movs	r0, #5
 379 01a2 FF21     		movs	r1, #255
 380 01a4 0122     		movs	r2, #1
 381 01a6 FFF7FEFF 		bl	motor_turn
 382              	.LVL47:
 217:main.c        ****                             break;
 383              		.loc 1 217 0
 384 01aa 12E0     		b	.L9
 385              	.L18:
 218:main.c        ****                         case 2:
 219:main.c        ****                             motor_turn(LOW_SPEED,HIGH_SPEED,DELAY_MOTOR); // turn left
 386              		.loc 1 219 0
 387 01ac C820     		movs	r0, #200
 388 01ae FA21     		movs	r1, #250
 389 01b0 0122     		movs	r2, #1
 390 01b2 FFF7FEFF 		bl	motor_turn
 391              	.LVL48:
 220:main.c        ****                             break;
 392              		.loc 1 220 0
ARM GAS  C:\Users\Omistaja\AppData\Local\Temp\ccnLuTRd.s 			page 12


 393 01b6 0CE0     		b	.L9
 394              	.L19:
 221:main.c        ****                         case 3:
 222:main.c        **** //                            motor_turn_right_more(HIGH_SPEED_MORE,LOW_SPEED_MORE,DELAY_MOTOR);
 223:main.c        ****                             motor_turn(HIGH_SPEED_MORE,LOW_SPEED_MORE,DELAY_MOTOR); // turn right m
 395              		.loc 1 223 0
 396 01b8 FF20     		movs	r0, #255
 397 01ba 0521     		movs	r1, #5
 398 01bc 0122     		movs	r2, #1
 399 01be FFF7FEFF 		bl	motor_turn
 400              	.LVL49:
 224:main.c        ****                             break;
 401              		.loc 1 224 0
 402 01c2 06E0     		b	.L9
 403              	.L20:
 225:main.c        ****                         case 4:
 226:main.c        ****                             motor_turn(HIGH_SPEED,LOW_SPEED,DELAY_MOTOR); // turn right
 404              		.loc 1 226 0
 405 01c4 FA20     		movs	r0, #250
 406 01c6 C821     		movs	r1, #200
 407 01c8 0122     		movs	r2, #1
 408 01ca FFF7FEFF 		bl	motor_turn
 409              	.LVL50:
 227:main.c        ****                             break;
 410              		.loc 1 227 0
 411 01ce 00E0     		b	.L9
 412              	.L26:
 181:main.c        ****                     }
 413              		.loc 1 181 0
 414 01d0 0027     		movs	r7, #0
 415              	.LVL51:
 416              	.L9:
 228:main.c        ****                     }
 229:main.c        **** 
 230:main.c        ****         }
 231:main.c        ****         check++;
 417              		.loc 1 231 0
 418 01d2 0134     		adds	r4, r4, #1
 419              	.LVL52:
 232:main.c        ****         if (check == 5000){
 420              		.loc 1 232 0
 421 01d4 41F28833 		movw	r3, #5000
 422 01d8 9C42     		cmp	r4, r3
 423 01da 03D1     		bne	.L21
 233:main.c        ****         battery = checkBattery();
 424              		.loc 1 233 0
 425 01dc FFF7FEFF 		bl	checkBattery
 426              	.LVL53:
 427 01e0 0546     		mov	r5, r0
 428              	.LVL54:
 234:main.c        ****         check = 0;
 429              		.loc 1 234 0
 430 01e2 0024     		movs	r4, #0
 431              	.LVL55:
 432              	.L21:
 235:main.c        ****         }
 236:main.c        ****         CyDelay(1);
ARM GAS  C:\Users\Omistaja\AppData\Local\Temp\ccnLuTRd.s 			page 13


 433              		.loc 1 236 0
 434 01e4 0120     		movs	r0, #1
 435 01e6 FFF7FEFF 		bl	CyDelay
 436              	.LVL56:
 437              	.L6:
 129:main.c        **** 
 438              		.loc 1 129 0
 439 01ea 2846     		mov	r0, r5
 440 01ec 4FF08141 		mov	r1, #1082130432
 441 01f0 FFF7FEFF 		bl	__aeabi_fcmpge
 442              	.LVL57:
 443 01f4 0028     		cmp	r0, #0
 444 01f6 7FF426AF 		bne	.L22
 445 01fa 0DE0     		b	.L23
 446              	.L24:
 237:main.c        ****     }
 238:main.c        ****     while (battery < 4){
 239:main.c        ****         BatteryLed_Write(1);
 447              		.loc 1 239 0
 448 01fc 0120     		movs	r0, #1
 449 01fe FFF7FEFF 		bl	BatteryLed_Write
 450              	.LVL58:
 240:main.c        ****         CyDelay(500);
 451              		.loc 1 240 0
 452 0202 4FF4FA70 		mov	r0, #500
 453 0206 FFF7FEFF 		bl	CyDelay
 454              	.LVL59:
 241:main.c        ****         BatteryLed_Write(0);
 455              		.loc 1 241 0
 456 020a 0020     		movs	r0, #0
 457 020c FFF7FEFF 		bl	BatteryLed_Write
 458              	.LVL60:
 242:main.c        ****         CyDelay(500);
 459              		.loc 1 242 0
 460 0210 4FF4FA70 		mov	r0, #500
 461 0214 FFF7FEFF 		bl	CyDelay
 462              	.LVL61:
 463              	.L23:
 238:main.c        ****         BatteryLed_Write(1);
 464              		.loc 1 238 0
 465 0218 2846     		mov	r0, r5
 466 021a 4FF08141 		mov	r1, #1082130432
 467 021e FFF7FEFF 		bl	__aeabi_fcmplt
 468              	.LVL62:
 469 0222 0028     		cmp	r0, #0
 470 0224 EAD1     		bne	.L24
 243:main.c        ****     }
 244:main.c        ****     return 0;
 245:main.c        **** }
 471              		.loc 1 245 0
 472 0226 05B0     		add	sp, sp, #20
 473              		.cfi_def_cfa_offset 28
 474              		@ sp needed
 475 0228 BDE8F083 		pop	{r4, r5, r6, r7, r8, r9, pc}
 476              	.LVL63:
 477              	.L29:
 478              		.align	2
ARM GAS  C:\Users\Omistaja\AppData\Local\Temp\ccnLuTRd.s 			page 14


 479              	.L28:
 480 022c 00000000 		.word	sensor_isr_handler
 481              		.cfi_endproc
 482              	.LFE64:
 483              		.size	main, .-main
 484              		.section	.text._write,"ax",%progbits
 485              		.align	2
 486              		.global	_write
 487              		.thumb
 488              		.thumb_func
 489              		.type	_write, %function
 490              	_write:
 491              	.LFB65:
 246:main.c        **** #if 0
 247:main.c        **** int rread(void)
 248:main.c        **** {
 249:main.c        ****     SC0_SetDriveMode(PIN_DM_STRONG);
 250:main.c        ****     SC0_Write(1);
 251:main.c        ****     CyDelayUs(10);
 252:main.c        ****     SC0_SetDriveMode(PIN_DM_DIG_HIZ);
 253:main.c        ****     Timer_1_Start();
 254:main.c        ****     uint16_t start = Timer_1_ReadCounter();
 255:main.c        ****     uint16_t end = 0;
 256:main.c        ****     while(!(Timer_1_ReadStatusRegister() & Timer_1_STATUS_TC)) {
 257:main.c        ****         if(SC0_Read() == 0 && end == 0) {
 258:main.c        ****             end = Timer_1_ReadCounter();
 259:main.c        ****         }
 260:main.c        ****     }
 261:main.c        ****     Timer_1_Stop();
 262:main.c        **** 
 263:main.c        ****     return (start - end);
 264:main.c        **** }
 265:main.c        **** #endif
 266:main.c        **** 
 267:main.c        **** /* Don't remove the functions below */
 268:main.c        **** int _write(int file, char *ptr, int len)
 269:main.c        **** {
 492              		.loc 1 269 0
 493              		.cfi_startproc
 494              		@ args = 0, pretend = 0, frame = 0
 495              		@ frame_needed = 0, uses_anonymous_args = 0
 496              	.LVL64:
 497 0000 F8B5     		push	{r3, r4, r5, r6, r7, lr}
 498              		.cfi_def_cfa_offset 24
 499              		.cfi_offset 3, -24
 500              		.cfi_offset 4, -20
 501              		.cfi_offset 5, -16
 502              		.cfi_offset 6, -12
 503              		.cfi_offset 7, -8
 504              		.cfi_offset 14, -4
 505 0002 0C46     		mov	r4, r1
 506 0004 1746     		mov	r7, r2
 507              	.LVL65:
 270:main.c        ****     (void)file; /* Parameter is not used, suppress unused argument warning */
 271:main.c        ****     int n;
 272:main.c        ****     for(n = 0; n < len; n++) {
 508              		.loc 1 272 0
ARM GAS  C:\Users\Omistaja\AppData\Local\Temp\ccnLuTRd.s 			page 15


 509 0006 0025     		movs	r5, #0
 510 0008 0BE0     		b	.L31
 511              	.LVL66:
 512              	.L33:
 273:main.c        ****         if(*ptr == '\n') UART_1_PutChar('\r');
 513              		.loc 1 273 0
 514 000a 2378     		ldrb	r3, [r4]	@ zero_extendqisi2
 515 000c 0A2B     		cmp	r3, #10
 516 000e 02D1     		bne	.L32
 517              		.loc 1 273 0 is_stmt 0 discriminator 1
 518 0010 0D20     		movs	r0, #13
 519 0012 FFF7FEFF 		bl	UART_1_PutChar
 520              	.LVL67:
 521              	.L32:
 274:main.c        ****         UART_1_PutChar(*ptr++);
 522              		.loc 1 274 0 is_stmt 1 discriminator 2
 523 0016 661C     		adds	r6, r4, #1
 524              	.LVL68:
 525 0018 2078     		ldrb	r0, [r4]	@ zero_extendqisi2
 526 001a FFF7FEFF 		bl	UART_1_PutChar
 527              	.LVL69:
 272:main.c        ****         if(*ptr == '\n') UART_1_PutChar('\r');
 528              		.loc 1 272 0 discriminator 2
 529 001e 0135     		adds	r5, r5, #1
 530              	.LVL70:
 531              		.loc 1 274 0 discriminator 2
 532 0020 3446     		mov	r4, r6
 533              	.LVL71:
 534              	.L31:
 272:main.c        ****         if(*ptr == '\n') UART_1_PutChar('\r');
 535              		.loc 1 272 0 discriminator 1
 536 0022 BD42     		cmp	r5, r7
 537 0024 F1DB     		blt	.L33
 275:main.c        ****     }
 276:main.c        ****     return len;
 277:main.c        **** }
 538              		.loc 1 277 0
 539 0026 3846     		mov	r0, r7
 540 0028 F8BD     		pop	{r3, r4, r5, r6, r7, pc}
 541              		.cfi_endproc
 542              	.LFE65:
 543              		.size	_write, .-_write
 544 002a 00BF     		.section	.text._read,"ax",%progbits
 545              		.align	2
 546              		.global	_read
 547              		.thumb
 548              		.thumb_func
 549              		.type	_read, %function
 550              	_read:
 551              	.LFB66:
 278:main.c        **** 
 279:main.c        **** int _read (int file, char *ptr, int count)
 280:main.c        **** {
 552              		.loc 1 280 0
 553              		.cfi_startproc
 554              		@ args = 0, pretend = 0, frame = 0
 555              		@ frame_needed = 0, uses_anonymous_args = 0
ARM GAS  C:\Users\Omistaja\AppData\Local\Temp\ccnLuTRd.s 			page 16


 556              	.LVL72:
 557 0000 F8B5     		push	{r3, r4, r5, r6, r7, lr}
 558              		.cfi_def_cfa_offset 24
 559              		.cfi_offset 3, -24
 560              		.cfi_offset 4, -20
 561              		.cfi_offset 5, -16
 562              		.cfi_offset 6, -12
 563              		.cfi_offset 7, -8
 564              		.cfi_offset 14, -4
 565 0002 0F46     		mov	r7, r1
 566 0004 1446     		mov	r4, r2
 567              	.LVL73:
 281:main.c        ****     int chs = 0;
 568              		.loc 1 281 0
 569 0006 0026     		movs	r6, #0
 282:main.c        ****     char ch;
 283:main.c        **** 
 284:main.c        ****     (void)file; /* Parameter is not used, suppress unused argument warning */
 285:main.c        ****     while(count > 0) {
 570              		.loc 1 285 0
 571 0008 12E0     		b	.L37
 572              	.LVL74:
 573              	.L40:
 286:main.c        ****         ch = UART_1_GetChar();
 574              		.loc 1 286 0
 575 000a FFF7FEFF 		bl	UART_1_GetChar
 576              	.LVL75:
 287:main.c        ****         if(ch != 0) {
 577              		.loc 1 287 0
 578 000e 0546     		mov	r5, r0
 579 0010 70B1     		cbz	r0, .L37
 288:main.c        ****             UART_1_PutChar(ch);
 580              		.loc 1 288 0
 581 0012 FFF7FEFF 		bl	UART_1_PutChar
 582              	.LVL76:
 289:main.c        ****             chs++;
 583              		.loc 1 289 0
 584 0016 0136     		adds	r6, r6, #1
 585              	.LVL77:
 290:main.c        ****             if(ch == '\r') {
 586              		.loc 1 290 0
 587 0018 0D2D     		cmp	r5, #13
 588 001a 03D1     		bne	.L38
 589              	.LVL78:
 291:main.c        ****                 ch = '\n';
 292:main.c        ****                 UART_1_PutChar(ch);
 590              		.loc 1 292 0
 591 001c 0A20     		movs	r0, #10
 592 001e FFF7FEFF 		bl	UART_1_PutChar
 593              	.LVL79:
 291:main.c        ****                 ch = '\n';
 594              		.loc 1 291 0
 595 0022 0A25     		movs	r5, #10
 596              	.LVL80:
 597              	.L38:
 293:main.c        ****             }
 294:main.c        ****             *ptr++ = ch;
ARM GAS  C:\Users\Omistaja\AppData\Local\Temp\ccnLuTRd.s 			page 17


 598              		.loc 1 294 0
 599 0024 7B1C     		adds	r3, r7, #1
 600              	.LVL81:
 601 0026 3D70     		strb	r5, [r7]
 295:main.c        ****             count--;
 602              		.loc 1 295 0
 603 0028 013C     		subs	r4, r4, #1
 604              	.LVL82:
 296:main.c        ****             if(ch == '\n') break;
 605              		.loc 1 296 0
 606 002a 0A2D     		cmp	r5, #10
 607 002c 02D0     		beq	.L39
 294:main.c        ****             count--;
 608              		.loc 1 294 0
 609 002e 1F46     		mov	r7, r3
 610              	.LVL83:
 611              	.L37:
 285:main.c        ****         ch = UART_1_GetChar();
 612              		.loc 1 285 0
 613 0030 002C     		cmp	r4, #0
 614 0032 EADC     		bgt	.L40
 615              	.LVL84:
 616              	.L39:
 297:main.c        ****         }
 298:main.c        ****     }
 299:main.c        ****     return chs;
 300:main.c        **** }
 617              		.loc 1 300 0
 618 0034 3046     		mov	r0, r6
 619 0036 F8BD     		pop	{r3, r4, r5, r6, r7, pc}
 620              		.cfi_endproc
 621              	.LFE66:
 622              		.size	_read, .-_read
 623              		.text
 624              	.Letext0:
 625              		.file 2 "c:\\program files (x86)\\cypress\\psoc creator\\4.0\\psoc creator\\import\\gnu\\arm\\4.9.
 626              		.file 3 "c:\\program files (x86)\\cypress\\psoc creator\\4.0\\psoc creator\\import\\gnu\\arm\\4.9.
 627              		.file 4 "Generated_Source\\PSoC5/cytypes.h"
 628              		.file 5 ".\\ZumoLibrary/Reflectance.h"
 629              		.file 6 "Generated_Source\\PSoC5/ADC_Battery.h"
 630              		.file 7 "Generated_Source\\PSoC5/UART_1.h"
 631              		.file 8 "Generated_Source\\PSoC5/sensor_isr.h"
 632              		.file 9 "Generated_Source\\PSoC5/IR_led.h"
 633              		.file 10 "Generated_Source\\PSoC5/BatteryLed.h"
 634              		.file 11 "Generated_Source\\PSoC5/CyLib.h"
 635              		.file 12 ".\\ZumoLibrary/Motor.h"
 636              		.file 13 ".\\ZumoLibrary/IR.h"
 637              		.file 14 "Generated_Source\\PSoC5/core_cm3.h"